Certificate:
    Data:
        Version: 3 (0x2)
        Serial Number:
            25:dc:06:73:28:b3:53:be:91:99:7d:cb:c1:f5:69:2b
        Signature Algorithm: sha256WithRSAEncryption
        Issuer: CN=FestivalsApp Development Root CA
        Validity
            Not Before: Oct 19 23:50:22 2023 GMT
            Not After : Jan 21 23:50:22 2026 GMT
        Subject: CN=*.festivalsapp.home
        Subject Public Key Info:
            Public Key Algorithm: rsaEncryption
                Public-Key: (2048 bit)
                Modulus:
                    00:ca:f0:b5:b1:50:bc:51:d6:24:c1:a1:80:d7:78:
                    64:8b:ef:9e:e1:2f:77:e3:fe:e9:e9:2f:80:10:ab:
                    0a:19:a5:86:bb:f9:d0:76:7b:00:00:9c:21:25:17:
                    ca:1d:d9:57:4a:20:76:6c:a5:41:29:c9:02:78:a9:
                    c6:23:05:56:41:49:b4:d4:e9:3f:c1:11:77:73:5f:
                    e3:32:cd:5c:b4:c8:d4:09:fa:7e:8f:ba:9d:54:4b:
                    c7:24:d5:8f:72:6f:d2:fa:be:4e:de:a5:e9:9e:13:
                    a3:e7:99:c1:be:66:3b:23:6c:6e:66:17:dc:68:58:
                    a7:da:db:65:0c:89:57:14:76:2e:61:05:bc:e7:d3:
                    00:75:c3:6d:c0:d2:6e:cf:22:c7:54:66:15:86:6e:
                    d2:75:1c:8a:68:54:f9:9e:7c:fc:ad:72:92:cf:c0:
                    62:1a:2a:f1:bc:af:e4:10:1d:98:50:a1:ed:d5:b5:
                    6f:ca:97:fd:c7:dc:31:60:23:c7:3f:98:d3:9e:fc:
                    88:52:68:93:9b:1a:2d:ea:67:65:4c:dd:c0:bb:a1:
                    39:7c:2f:82:1d:18:23:cb:29:ca:46:5f:3b:c2:61:
                    78:a0:ad:9b:9c:38:9b:5e:33:28:ce:d5:34:b4:fb:
                    fe:c5:55:06:56:3e:22:02:d8:48:20:99:72:76:a6:
                    11:a9
                Exponent: 65537 (0x10001)
        X509v3 extensions:
            X509v3 Basic Constraints: 
                CA:FALSE
            X509v3 Subject Key Identifier: 
                F8:6A:03:91:46:71:36:24:0A:2B:7E:FE:ED:3F:7E:50:EB:B6:0A:EC
            X509v3 Authority Key Identifier: 
                keyid:05:96:7C:95:CC:92:FC:CE:8E:D8:C6:29:52:E7:9E:4C:D1:E2:82:E1
                DirName:/CN=FestivalsApp Development Root CA
                serial:1D:A9:2E:E5:AC:36:AF:C6:85:6A:C0:B4:D0:35:61:15:55:6D:CF:DC
            X509v3 Extended Key Usage: 
                TLS Web Server Authentication, TLS Web Client Authentication
            X509v3 Key Usage: 
                Digital Signature, Key Encipherment
            X509v3 Subject Alternative Name: 
                DNS:*.festivalsapp.home
    Signature Algorithm: sha256WithRSAEncryption
    Signature Value:
        2c:1b:be:75:4b:50:ac:a0:5e:e3:75:71:ea:d9:dc:4b:43:f3:
        47:f6:5d:75:22:3f:b2:1f:da:53:00:45:16:a6:08:5e:1d:ca:
        3b:e0:5d:53:3f:8d:1e:5a:40:9b:46:54:07:5d:28:21:f7:1a:
        46:5a:b4:0c:da:84:8f:0b:eb:4c:be:ce:b2:89:fc:17:76:f0:
        4c:1e:a4:e7:10:dd:56:6c:ed:eb:26:64:00:e5:bd:72:7e:b7:
        a6:3c:af:c7:de:65:bf:3f:f9:9f:b4:e2:1a:fe:49:7e:3a:77:
        a3:09:cb:10:19:db:23:d7:57:e4:31:af:fb:e1:c8:d1:5a:2b:
        df:4a:ed:33:25:9d:db:af:67:b3:f6:19:99:e0:8a:11:7a:90:
        46:83:4e:66:35:bc:02:97:5e:bf:a3:bf:a9:b7:c6:f6:65:5b:
        0b:0e:55:92:c2:15:47:c2:5b:ec:c5:ed:c1:e4:e2:a7:a6:68:
        60:15:6f:1b:4e:20:eb:0d:e5:94:48:4b:3b:10:bf:4a:2b:00:
        0f:eb:34:3c:66:2f:6a:69:02:12:9e:7b:13:13:73:59:6f:de:
        91:29:05:6e:a9:94:83:0e:cf:71:18:21:ef:e1:89:cf:9e:38:
        0e:94:9f:8d:ec:16:73:bb:4f:cc:d1:b9:11:dd:bd:69:df:63:
        13:55:c9:01
-----BEGIN CERTIFICATE-----
MIIDtTCCAp2gAwIBAgIQJdwGcyizU76RmX3LwfVpKzANBgkqhkiG9w0BAQsFADAr
MSkwJwYDVQQDDCBGZXN0aXZhbHNBcHAgRGV2ZWxvcG1lbnQgUm9vdCBDQTAeFw0y
MzEwMTkyMzUwMjJaFw0yNjAxMjEyMzUwMjJaMB4xHDAaBgNVBAMMEyouZmVzdGl2
YWxzYXBwLmhvbWUwggEiMA0GCSqGSIb3DQEBAQUAA4IBDwAwggEKAoIBAQDK8LWx
ULxR1iTBoYDXeGSL757hL3fj/unpL4AQqwoZpYa7+dB2ewAAnCElF8od2VdKIHZs
pUEpyQJ4qcYjBVZBSbTU6T/BEXdzX+MyzVy0yNQJ+n6Pup1US8ck1Y9yb9L6vk7e
pemeE6PnmcG+ZjsjbG5mF9xoWKfa22UMiVcUdi5hBbzn0wB1w23A0m7PIsdUZhWG
btJ1HIpoVPmefPytcpLPwGIaKvG8r+QQHZhQoe3VtW/Kl/3H3DFgI8c/mNOe/IhS
aJObGi3qZ2VM3cC7oTl8L4IdGCPLKcpGXzvCYXigrZucOJteMyjO1TS0+/7FVQZW
PiIC2EggmXJ2phGpAgMBAAGjgeEwgd4wCQYDVR0TBAIwADAdBgNVHQ4EFgQU+GoD
kUZxNiQKK37+7T9+UOu2CuwwZgYDVR0jBF8wXYAUBZZ8lcyS/M6O2MYpUueeTNHi
guGhL6QtMCsxKTAnBgNVBAMMIEZlc3RpdmFsc0FwcCBEZXZlbG9wbWVudCBSb290
IENBghQdqS7lrDavxoVqwLTQNWEVVW3P3DAdBgNVHSUEFjAUBggrBgEFBQcDAQYI
KwYBBQUHAwIwCwYDVR0PBAQDAgWgMB4GA1UdEQQXMBWCEyouZmVzdGl2YWxzYXBw
LmhvbWUwDQYJKoZIhvcNAQELBQADggEBACwbvnVLUKygXuN1cerZ3EtD80f2XXUi
P7If2lMARRamCF4dyjvgXVM/jR5aQJtGVAddKCH3GkZatAzahI8L60y+zrKJ/Bd2
8EwepOcQ3VZs7esmZADlvXJ+t6Y8r8feZb8/+Z+04hr+SX46d6MJyxAZ2yPXV+Qx
r/vhyNFaK99K7TMlnduvZ7P2GZngihF6kEaDTmY1vAKXXr+jv6m3xvZlWwsOVZLC
FUfCW+zF7cHk4qemaGAVbxtOIOsN5ZRISzsQv0orAA/rNDxmL2ppAhKeexMTc1lv
3pEpBW6plIMOz3EYIe/hic+eOA6Un43sFnO7T8zRuRHdvWnfYxNVyQE=
-----END CERTIFICATE-----
